Certificate:
    Data:
        Version: 3 (0x2)
        Serial Number:
            5f:41:ec:b9:94:07:fa:8e:df:bd:56:22:5a:e4:07:97
        Signature Algorithm: ecdsa-with-SHA512
        Issuer: CN=Common Name
        Validity
            Not Before: Jul 23 11:53:19 2024 GMT
            Not After : Jul  8 11:53:19 2027 GMT
        Subject: CN=client
        Subject Public Key Info:
            Public Key Algorithm: id-ecPublicKey
                Public-Key: (384 bit)
                pub:
                    04:c1:a1:6a:36:d7:0c:0f:0a:74:ee:be:2f:5d:00:
                    c6:8b:49:ee:45:e5:0a:bf:d0:72:71:87:65:21:f5:
                    ca:a6:31:9c:29:5d:a2:e9:25:3b:97:68:7a:61:ce:
                    95:81:7e:1b:27:c6:41:7f:a4:c2:66:b6:01:2c:3a:
                    40:1f:e8:e3:cb:f4:99:d7:02:ed:12:fd:1f:65:a9:
                    1d:f4:b7:ae:df:b9:ad:10:dd:b6:42:b7:16:02:9b:
                    9b:d2:a1:e1:7c:a3:7f
                ASN1 OID: secp384r1
                NIST CURVE: P-384
        X509v3 extensions:
            X509v3 Basic Constraints: 
                CA:FALSE
            X509v3 Subject Key Identifier: 
                E5:1F:70:9F:91:DE:C2:15:7F:B0:DC:B8:92:CA:17:6F:16:F7:7B:71
            X509v3 Authority Key Identifier: 
                keyid:0A:86:A2:8C:74:8C:F2:2F:24:94:F5:9A:03:A7:B3:06:26:A7:C7:4F
                DirName:/CN=Common Name
                serial:09:39:62:E1:FE:77:D2:5A:C7:D1:5C:C6:53:F3:A5:DB:02:06:40:30

            X509v3 Extended Key Usage: 
                TLS Web Client Authentication
            X509v3 Key Usage: 
                Digital Signature
    Signature Algorithm: ecdsa-with-SHA512
         30:65:02:30:31:17:2d:fb:74:04:f1:ba:75:0b:81:c3:07:c3:
         df:ab:8a:b4:d3:b5:40:65:c1:0f:e3:40:66:27:d3:26:dc:5c:
         98:7f:69:d5:3f:c2:fb:ae:ac:0b:6d:86:4d:56:5a:c0:02:31:
         00:b8:90:6b:49:ce:31:f4:95:b6:30:66:33:71:18:d0:91:44:
         71:31:82:62:f5:6c:b7:83:83:bf:26:b6:01:b8:01:db:8e:a7:
         58:03:09:c5:8b:ca:0e:2b:84:39:ae:6f:81
-----BEGIN CERTIFICATE-----
MIICBTCCAYugAwIBAgIQX0HsuZQH+o7fvVYiWuQHlzAKBggqhkjOPQQDBDAWMRQw
EgYDVQQDDAtDb21tb24gTmFtZTAeFw0yNDA3MjMxMTUzMTlaFw0yNzA3MDgxMTUz
MTlaMBExDzANBgNVBAMMBmNsaWVudDB2MBAGByqGSM49AgEGBSuBBAAiA2IABMGh
ajbXDA8KdO6+L10AxotJ7kXlCr/QcnGHZSH1yqYxnCldouklO5doemHOlYF+GyfG
QX+kwma2ASw6QB/o48v0mdcC7RL9H2WpHfS3rt+5rRDdtkK3FgKbm9Kh4Xyjf6OB
ojCBnzAJBgNVHRMEAjAAMB0GA1UdDgQWBBTlH3Cfkd7CFX+w3LiSyhdvFvd7cTBR
BgNVHSMESjBIgBQKhqKMdIzyLySU9ZoDp7MGJqfHT6EapBgwFjEUMBIGA1UEAwwL
Q29tbW9uIE5hbWWCFAk5YuH+d9Jax9FcxlPzpdsCBkAwMBMGA1UdJQQMMAoGCCsG
AQUFBwMCMAsGA1UdDwQEAwIHgDAKBggqhkjOPQQDBANoADBlAjAxFy37dATxunUL
gcMHw9+rirTTtUBlwQ/jQGYn0ybcXJh/adU/wvuurAtthk1WWsACMQC4kGtJzjH0
lbYwZjNxGNCRRHExgmL1bLeDg78mtgG4AduOp1gDCcWLyg4rhDmub4E=
-----END CERTIFICATE-----
