Certificate:
    Data:
        Version: 3 (0x2)
        Serial Number:
            6c:79:82:a0:bb:43:13:58:0b:29:9a:2d:f3:2b:a8:0c
        Signature Algorithm: ecdsa-with-SHA512
        Issuer: CN=Common Name
        Validity
            Not Before: Jul 23 01:26:25 2024 GMT
            Not After : Jul  8 01:26:25 2027 GMT
        Subject: CN=client
        Subject Public Key Info:
            Public Key Algorithm: id-ecPublicKey
                Public-Key: (384 bit)
                pub:
                    04:74:8a:22:02:0c:fc:f3:e5:3c:95:7e:60:f9:56:
                    92:e5:e7:22:bf:c4:32:92:4d:11:df:0a:98:41:53:
                    d0:27:4c:18:2f:ef:83:9f:fe:16:f7:55:8d:cc:5a:
                    93:44:56:1e:52:c9:40:e9:94:c3:2d:51:3a:6a:a5:
                    3e:aa:5b:6d:ec:e5:72:ca:f2:d3:f0:6e:2b:81:9c:
                    28:7c:7d:56:c8:16:92:09:fd:6c:a9:5f:d7:c6:27:
                    cc:ea:f1:9e:eb:3d:e3
                ASN1 OID: secp384r1
                NIST CURVE: P-384
        X509v3 extensions:
            X509v3 Basic Constraints: 
                CA:FALSE
            X509v3 Subject Key Identifier: 
                19:C0:A2:1D:EC:3C:73:DB:A7:90:54:0D:51:BA:AC:FF:D8:63:96:7E
            X509v3 Authority Key Identifier: 
                keyid:B2:B6:51:3B:24:21:7D:4C:D9:47:CE:B6:A1:F9:90:BF:03:8F:50:9D
                DirName:/CN=Common Name
                serial:4B:AC:76:05:7B:AA:1D:B6:08:8B:EF:66:FF:54:2C:0D:0E:D6:C5

            X509v3 Extended Key Usage: 
                TLS Web Client Authentication
            X509v3 Key Usage: 
                Digital Signature
    Signature Algorithm: ecdsa-with-SHA512
         30:66:02:31:00:cb:df:2a:f1:b1:46:97:fb:51:3c:f6:ab:20:
         be:d2:fc:13:f2:15:9d:f2:a2:b2:82:99:7c:a3:c8:d1:a4:cb:
         52:14:64:33:4e:86:42:5f:a8:db:e1:e2:a2:cd:1e:5b:ec:02:
         31:00:b4:ed:8e:8a:82:5b:e1:21:d1:f0:d4:ef:b8:c9:93:d6:
         60:42:03:0a:b7:71:da:bd:a8:76:40:e5:30:1d:87:90:7c:15:
         57:50:92:67:33:88:85:f7:be:ce:b1:73:6c:26
-----BEGIN CERTIFICATE-----
MIICBTCCAYqgAwIBAgIQbHmCoLtDE1gLKZot8yuoDDAKBggqhkjOPQQDBDAWMRQw
EgYDVQQDDAtDb21tb24gTmFtZTAeFw0yNDA3MjMwMTI2MjVaFw0yNzA3MDgwMTI2
MjVaMBExDzANBgNVBAMMBmNsaWVudDB2MBAGByqGSM49AgEGBSuBBAAiA2IABHSK
IgIM/PPlPJV+YPlWkuXnIr/EMpJNEd8KmEFT0CdMGC/vg5/+FvdVjcxak0RWHlLJ
QOmUwy1ROmqlPqpbbezlcsry0/BuK4GcKHx9VsgWkgn9bKlf18YnzOrxnus946OB
oTCBnjAJBgNVHRMEAjAAMB0GA1UdDgQWBBQZwKId7Dxz26eQVA1Ruqz/2GOWfjBQ
BgNVHSMESTBHgBSytlE7JCF9TNlHzrah+ZC/A49QnaEapBgwFjEUMBIGA1UEAwwL
Q29tbW9uIE5hbWWCE0usdgV7qh22CIvvZv9ULA0O1sUwEwYDVR0lBAwwCgYIKwYB
BQUHAwIwCwYDVR0PBAQDAgeAMAoGCCqGSM49BAMEA2kAMGYCMQDL3yrxsUaX+1E8
9qsgvtL8E/IVnfKisoKZfKPI0aTLUhRkM06GQl+o2+Hios0eW+wCMQC07Y6Kglvh
IdHw1O+4yZPWYEIDCrdx2r2odkDlMB2HkHwVV1CSZzOIhfe+zrFzbCY=
-----END CERTIFICATE-----
